; Function Attrs: noreturn nounwind sspstrong uwtable
define internal fastcc void @range_each_fixnum_endless(i64 noundef %0) unnamed_addr #9 {
  %2 = ashr i64 %0, 1
  br label %5

3:                                                ; preds = %5
  %4 = tail call fastcc i64 @rb_long2num_inline(i64 noundef 4611686018427387904)
  tail call fastcc void @range_each_bignum_endless(i64 noundef %4) #15
  unreachable

5:                                                ; preds = %1, %5
  %.05 = phi i64 [ %2, %1 ], [ %9, %5 ]
  %6 = shl i64 %.05, 1
  %7 = or disjoint i64 %6, 1
  %8 = tail call i64 @rb_yield(i64 noundef %7) #13
  %9 = add i64 %.05, 1
  %exitcond.not = icmp eq i64 %9, 4611686018427387904
  br i1 %exitcond.not, label %3, label %5, !llvm.loop !54
}